; Function Attrs: mustprogress uwtable
define void @_ZN7rocksdb15WriteController13GetDelayTokenEm(ptr noalias nocapture writeonly sret(%"class.std::unique_ptr") align 8 %agg.result, ptr noundef nonnull align 8 dereferenceable(56) %this, i64 noundef %write_rate) local_unnamed_addr #0 align 2 personality ptr @__gxx_personality_v0 {
entry:
  %total_delayed_ = getelementptr inbounds i8, ptr %this, i64 4
  %0 = atomicrmw add ptr %total_delayed_, i32 1 seq_cst, align 4
  %cmp = icmp eq i32 %0, 0
  br i1 %cmp, label %if.then, label %if.end

if.then:                                          ; preds = %entry
  %credit_in_bytes_ = getelementptr inbounds i8, ptr %this, i64 16
  tail call void @llvm.memset.p0.i64(ptr noundef nonnull align 8 dereferenceable(16) %credit_in_bytes_, i8 0, i64 16, i1 false)
  br label %if.end

if.end:                                           ; preds = %if.then, %entry
  %cmp.i = icmp eq i64 %write_rate, 0
  %max_delayed_write_rate_.i.i = getelementptr inbounds i8, ptr %this, i64 32
  %1 = load i64, ptr %max_delayed_write_rate_.i.i, align 8
  %spec.select.i = tail call i64 @llvm.umin.i64(i64 %1, i64 %write_rate)
  %write_rate.addr.0.i = select i1 %cmp.i, i64 1, i64 %spec.select.i
  %delayed_write_rate_.i = getelementptr inbounds i8, ptr %this, i64 40
  store i64 %write_rate.addr.0.i, ptr %delayed_write_rate_.i, align 8
  %call2 = tail call noalias noundef nonnull dereferenceable(16) ptr @_Znwm(i64 noundef 16) #9
  %controller_.i.i = getelementptr inbounds i8, ptr %call2, i64 8
  store ptr %this, ptr %controller_.i.i, align 8
  store ptr getelementptr inbounds ({ [4 x ptr] }, ptr @_ZTVN7rocksdb15DelayWriteTokenE, i64 0, i32 0, i64 2), ptr %call2, align 8
  store ptr %call2, ptr %agg.result, align 8
  ret void
}